target datalayout = "e-m:e-p270:32:32-p271:32:32-p272:64:64-i64:64-i128:128-f80:128-n8:16:32:64-S128"
target triple = "x86_64-pc-linux-gnu"

@_ZN6icu_77L11MONTHLENGTHE = internal constant [12 x i32] [i32 31, i32 28, i32 31, i32 30, i32 31, i32 30, i32 31, i32 31, i32 30, i32 31, i32 30, i32 31], align 16

; Function Attrs: inlinehint mustprogress nounwind uwtable
define internal noundef signext i8 @_ZL9U_FAILURE10UErrorCode(i32 noundef %0) #3 {
  %2 = alloca i32, align 4
  store i32 %0, ptr %2, align 4, !tbaa !45
  %3 = load i32, ptr %2, align 4, !tbaa !45
  %4 = icmp sgt i32 %3, 0
  %5 = zext i1 %4 to i8
  ret i8 %5
}

; Function Attrs: mustprogress uwtable
define void @_ZNK6icu_779VTimeZone27writeZonePropsByDOW_GEQ_DOMERNS_9VTZWriterEaRKNS_13UnicodeStringEiiiiiddR10UErrorCode(ptr noundef nonnull align 8 dereferenceable(288) %0, ptr noundef nonnull align 8 dereferenceable(8) %1, i8 noundef signext %2, ptr noundef nonnull align 8 dereferenceable(64) %3, i32 noundef %4, i32 noundef %5, i32 noundef %6, i32 noundef %7, i32 noundef %8, double noundef %9, double noundef %10, ptr noundef nonnull align 4 dereferenceable(4) %11) #1 align 2 {
  %13 = alloca ptr, align 8
  %14 = alloca ptr, align 8
  %15 = alloca i8, align 1
  %16 = alloca ptr, align 8
  %17 = alloca i32, align 4
  %18 = alloca i32, align 4
  %19 = alloca i32, align 4
  %20 = alloca i32, align 4
  %21 = alloca i32, align 4
  %22 = alloca double, align 8
  %23 = alloca double, align 8
  %24 = alloca ptr, align 8
  %25 = alloca i32, align 4
  %26 = alloca i32, align 4
  %27 = alloca i32, align 4
  %28 = alloca i32, align 4
  %29 = alloca i32, align 4
  %30 = alloca i32, align 4
  %31 = alloca i32, align 4
  store ptr %0, ptr %13, align 8, !tbaa !29
  store ptr %1, ptr %14, align 8, !tbaa !3
  store i8 %2, ptr %15, align 1, !tbaa !28
  store ptr %3, ptr %16, align 8, !tbaa !8
  store i32 %4, ptr %17, align 4, !tbaa !18
  store i32 %5, ptr %18, align 4, !tbaa !18
  store i32 %6, ptr %19, align 4, !tbaa !18
  store i32 %7, ptr %20, align 4, !tbaa !18
  store i32 %8, ptr %21, align 4, !tbaa !18
  store double %9, ptr %22, align 8, !tbaa !77
  store double %10, ptr %23, align 8, !tbaa !77
  store ptr %11, ptr %24, align 8, !tbaa !55
  %32 = load ptr, ptr %13, align 8
  %33 = load ptr, ptr %24, align 8, !tbaa !55
  %34 = load i32, ptr %33, align 4, !tbaa !45
  %35 = call noundef signext i8 @_ZL9U_FAILURE10UErrorCode(i32 noundef %34)
  %36 = icmp ne i8 %35, 0
  br i1 %36, label %37, label %38

37:                                               ; preds = %12
  br label %215

38:                                               ; preds = %12
  %39 = load i32, ptr %20, align 4, !tbaa !18
  %40 = srem i32 %39, 7
  %41 = icmp eq i32 %40, 1
  br i1 %41, label %42, label %62

42:                                               ; preds = %38
  %43 = load ptr, ptr %14, align 8, !tbaa !3
  %44 = load i8, ptr %15, align 1, !tbaa !28
  %45 = load ptr, ptr %16, align 8, !tbaa !8
  %46 = load i32, ptr %17, align 4, !tbaa !18
  %47 = load i32, ptr %18, align 4, !tbaa !18
  %48 = load i32, ptr %19, align 4, !tbaa !18
  %49 = load i32, ptr %20, align 4, !tbaa !18
  %50 = add nsw i32 %49, 6
  %51 = sdiv i32 %50, 7
  %52 = load i32, ptr %21, align 4, !tbaa !18
  %53 = load double, ptr %22, align 8, !tbaa !77
  %54 = load double, ptr %23, align 8, !tbaa !77
  %55 = load ptr, ptr %24, align 8, !tbaa !55
  call void @_ZNK6icu_779VTimeZone19writeZonePropsByDOWERNS_9VTZWriterEaRKNS_13UnicodeStringEiiiiiddR10UErrorCode(ptr noundef nonnull align 8 dereferenceable(288) %32, ptr noundef nonnull align 8 dereferenceable(8) %43, i8 noundef signext %44, ptr noundef nonnull align 8 dereferenceable(64) %45, i32 noundef %46, i32 noundef %47, i32 noundef %48, i32 noundef %51, i32 noundef %52, double noundef %53, double noundef %54, ptr noundef nonnull align 4 dereferenceable(4) %55)
  %56 = load ptr, ptr %24, align 8, !tbaa !55
  %57 = load i32, ptr %56, align 4, !tbaa !45
  %58 = call noundef signext i8 @_ZL9U_FAILURE10UErrorCode(i32 noundef %57)
  %59 = icmp ne i8 %58, 0
  br i1 %59, label %60, label %61

60:                                               ; preds = %42
  br label %215

61:                                               ; preds = %42
  br label %215

62:                                               ; preds = %38
  %63 = load i32, ptr %19, align 4, !tbaa !18
  %64 = icmp ne i32 %63, 1
  br i1 %64, label %65, label %100

65:                                               ; preds = %62
  %66 = load i32, ptr %19, align 4, !tbaa !18
  %67 = sext i32 %66 to i64
  %68 = getelementptr inbounds [12 x i32], ptr @_ZN6icu_77L11MONTHLENGTHE, i64 0, i64 %67
  %69 = load i32, ptr %68, align 4, !tbaa !18
  %70 = load i32, ptr %20, align 4, !tbaa !18
  %71 = sub nsw i32 %69, %70
  %72 = srem i32 %71, 7
  %73 = icmp eq i32 %72, 6
  br i1 %73, label %74, label %100

74:                                               ; preds = %65
  %75 = load ptr, ptr %14, align 8, !tbaa !3
  %76 = load i8, ptr %15, align 1, !tbaa !28
  %77 = load ptr, ptr %16, align 8, !tbaa !8
  %78 = load i32, ptr %17, align 4, !tbaa !18
  %79 = load i32, ptr %18, align 4, !tbaa !18
  %80 = load i32, ptr %19, align 4, !tbaa !18
  %81 = load i32, ptr %19, align 4, !tbaa !18
  %82 = sext i32 %81 to i64
  %83 = getelementptr inbounds [12 x i32], ptr @_ZN6icu_77L11MONTHLENGTHE, i64 0, i64 %82
  %84 = load i32, ptr %83, align 4, !tbaa !18
  %85 = load i32, ptr %20, align 4, !tbaa !18
  %86 = sub nsw i32 %84, %85
  %87 = add nsw i32 %86, 1
  %88 = sdiv i32 %87, 7
  %89 = mul nsw i32 -1, %88
  %90 = load i32, ptr %21, align 4, !tbaa !18
  %91 = load double, ptr %22, align 8, !tbaa !77
  %92 = load double, ptr %23, align 8, !tbaa !77
  %93 = load ptr, ptr %24, align 8, !tbaa !55
  call void @_ZNK6icu_779VTimeZone19writeZonePropsByDOWERNS_9VTZWriterEaRKNS_13UnicodeStringEiiiiiddR10UErrorCode(ptr noundef nonnull align 8 dereferenceable(288) %32, ptr noundef nonnull align 8 dereferenceable(8) %75, i8 noundef signext %76, ptr noundef nonnull align 8 dereferenceable(64) %77, i32 noundef %78, i32 noundef %79, i32 noundef %80, i32 noundef %89, i32 noundef %90, double noundef %91, double noundef %92, ptr noundef nonnull align 4 dereferenceable(4) %93)
  %94 = load ptr, ptr %24, align 8, !tbaa !55
  %95 = load i32, ptr %94, align 4, !tbaa !45
  %96 = call noundef signext i8 @_ZL9U_FAILURE10UErrorCode(i32 noundef %95)
  %97 = icmp ne i8 %96, 0
  br i1 %97, label %98, label %99

98:                                               ; preds = %74
  br label %215

99:                                               ; preds = %74
  br label %214

100:                                              ; preds = %65, %62
  %101 = load ptr, ptr %14, align 8, !tbaa !3
  %102 = load i8, ptr %15, align 1, !tbaa !28
  %103 = load ptr, ptr %16, align 8, !tbaa !8
  %104 = load i32, ptr %17, align 4, !tbaa !18
  %105 = load i32, ptr %18, align 4, !tbaa !18
  %106 = load double, ptr %22, align 8, !tbaa !77
  %107 = load ptr, ptr %24, align 8, !tbaa !55
  call void @_ZNK6icu_779VTimeZone14beginZonePropsERNS_9VTZWriterEaRKNS_13UnicodeStringEiidR10UErrorCode(ptr noundef nonnull align 8 dereferenceable(288) %32, ptr noundef nonnull align 8 dereferenceable(8) %101, i8 noundef signext %102, ptr noundef nonnull align 8 dereferenceable(64) %103, i32 noundef %104, i32 noundef %105, double noundef %106, ptr noundef nonnull align 4 dereferenceable(4) %107)
  %108 = load ptr, ptr %24, align 8, !tbaa !55
  %109 = load i32, ptr %108, align 4, !tbaa !45
  %110 = call noundef signext i8 @_ZL9U_FAILURE10UErrorCode(i32 noundef %109)
  %111 = icmp ne i8 %110, 0
  br i1 %111, label %112, label %113

112:                                              ; preds = %100
  br label %215

113:                                              ; preds = %100
  call void @llvm.lifetime.start.p0(i64 4, ptr %25) #11
  %114 = load i32, ptr %20, align 4, !tbaa !18
  store i32 %114, ptr %25, align 4, !tbaa !18
  call void @llvm.lifetime.start.p0(i64 4, ptr %26) #11
  store i32 7, ptr %26, align 4, !tbaa !18
  %115 = load i32, ptr %20, align 4, !tbaa !18
  %116 = icmp sle i32 %115, 0
  br i1 %116, label %117, label %149

117:                                              ; preds = %113
  call void @llvm.lifetime.start.p0(i64 4, ptr %27) #11
  %118 = load i32, ptr %20, align 4, !tbaa !18
  %119 = sub nsw i32 1, %118
  store i32 %119, ptr %27, align 4, !tbaa !18
  %120 = load i32, ptr %27, align 4, !tbaa !18
  %121 = load i32, ptr %26, align 4, !tbaa !18
  %122 = sub nsw i32 %121, %120
  store i32 %122, ptr %26, align 4, !tbaa !18
  call void @llvm.lifetime.start.p0(i64 4, ptr %28) #11
  %123 = load i32, ptr %19, align 4, !tbaa !18
  %124 = sub nsw i32 %123, 1
  %125 = icmp slt i32 %124, 0
  br i1 %125, label %126, label %127

126:                                              ; preds = %117
  br label %130

127:                                              ; preds = %117
  %128 = load i32, ptr %19, align 4, !tbaa !18
  %129 = sub nsw i32 %128, 1
  br label %130

130:                                              ; preds = %127, %126
  %131 = phi i32 [ 11, %126 ], [ %129, %127 ]
  store i32 %131, ptr %28, align 4, !tbaa !18
  %132 = load ptr, ptr %14, align 8, !tbaa !3
  %133 = load i32, ptr %28, align 4, !tbaa !18
  %134 = load i32, ptr %27, align 4, !tbaa !18
  %135 = sub nsw i32 0, %134
  %136 = load i32, ptr %21, align 4, !tbaa !18
  %137 = load i32, ptr %27, align 4, !tbaa !18
  %138 = load i32, ptr %17, align 4, !tbaa !18
  %139 = load ptr, ptr %24, align 8, !tbaa !55
  call void @_ZNK6icu_779VTimeZone31writeZonePropsByDOW_GEQ_DOM_subERNS_9VTZWriterEiiiidiR10UErrorCode(ptr noundef nonnull align 8 dereferenceable(288) %32, ptr noundef nonnull align 8 dereferenceable(8) %132, i32 noundef %133, i32 noundef %135, i32 noundef %136, i32 noundef %137, double noundef 0x43846A3EDDF8CD80, i32 noundef %138, ptr noundef nonnull align 4 dereferenceable(4) %139)
  %140 = load ptr, ptr %24, align 8, !tbaa !55
  %141 = load i32, ptr %140, align 4, !tbaa !45
  %142 = call noundef signext i8 @_ZL9U_FAILURE10UErrorCode(i32 noundef %141)
  %143 = icmp ne i8 %142, 0
  br i1 %143, label %144, label %145

144:                                              ; preds = %130
  store i32 1, ptr %29, align 4
  br label %146

145:                                              ; preds = %130
  store i32 1, ptr %25, align 4, !tbaa !18
  store i32 0, ptr %29, align 4
  br label %146

146:                                              ; preds = %145, %144
  call void @llvm.lifetime.end.p0(i64 4, ptr %28) #11
  call void @llvm.lifetime.end.p0(i64 4, ptr %27) #11
  %147 = load i32, ptr %29, align 4
  switch i32 %147, label %211 [
    i32 0, label %148
  ]

148:                                              ; preds = %146
  br label %193

149:                                              ; preds = %113
  %150 = load i32, ptr %20, align 4, !tbaa !18
  %151 = add nsw i32 %150, 6
  %152 = load i32, ptr %19, align 4, !tbaa !18
  %153 = sext i32 %152 to i64
  %154 = getelementptr inbounds [12 x i32], ptr @_ZN6icu_77L11MONTHLENGTHE, i64 0, i64 %153
  %155 = load i32, ptr %154, align 4, !tbaa !18
  %156 = icmp sgt i32 %151, %155
  br i1 %156, label %157, label %192

157:                                              ; preds = %149
  call void @llvm.lifetime.start.p0(i64 4, ptr %30) #11
  %158 = load i32, ptr %20, align 4, !tbaa !18
  %159 = add nsw i32 %158, 6
  %160 = load i32, ptr %19, align 4, !tbaa !18
  %161 = sext i32 %160 to i64
  %162 = getelementptr inbounds [12 x i32], ptr @_ZN6icu_77L11MONTHLENGTHE, i64 0, i64 %161
  %163 = load i32, ptr %162, align 4, !tbaa !18
  %164 = sub nsw i32 %159, %163
  store i32 %164, ptr %30, align 4, !tbaa !18
  %165 = load i32, ptr %30, align 4, !tbaa !18
  %166 = load i32, ptr %26, align 4, !tbaa !18
  %167 = sub nsw i32 %166, %165
  store i32 %167, ptr %26, align 4, !tbaa !18
  call void @llvm.lifetime.start.p0(i64 4, ptr %31) #11
  %168 = load i32, ptr %19, align 4, !tbaa !18
  %169 = add nsw i32 %168, 1
  %170 = icmp sgt i32 %169, 11
  br i1 %170, label %171, label %172

171:                                              ; preds = %157
  br label %175

172:                                              ; preds = %157
  %173 = load i32, ptr %19, align 4, !tbaa !18
  %174 = add nsw i32 %173, 1
  br label %175

175:                                              ; preds = %172, %171
  %176 = phi i32 [ 0, %171 ], [ %174, %172 ]
  store i32 %176, ptr %31, align 4, !tbaa !18
  %177 = load ptr, ptr %14, align 8, !tbaa !3
  %178 = load i32, ptr %31, align 4, !tbaa !18
  %179 = load i32, ptr %21, align 4, !tbaa !18
  %180 = load i32, ptr %30, align 4, !tbaa !18
  %181 = load i32, ptr %17, align 4, !tbaa !18
  %182 = load ptr, ptr %24, align 8, !tbaa !55
  call void @_ZNK6icu_779VTimeZone31writeZonePropsByDOW_GEQ_DOM_subERNS_9VTZWriterEiiiidiR10UErrorCode(ptr noundef nonnull align 8 dereferenceable(288) %32, ptr noundef nonnull align 8 dereferenceable(8) %177, i32 noundef %178, i32 noundef 1, i32 noundef %179, i32 noundef %180, double noundef 0x43846A3EDDF8CD80, i32 noundef %181, ptr noundef nonnull align 4 dereferenceable(4) %182)
  %183 = load ptr, ptr %24, align 8, !tbaa !55
  %184 = load i32, ptr %183, align 4, !tbaa !45
  %185 = call noundef signext i8 @_ZL9U_FAILURE10UErrorCode(i32 noundef %184)
  %186 = icmp ne i8 %185, 0
  br i1 %186, label %187, label %188

187:                                              ; preds = %175
  store i32 1, ptr %29, align 4
  br label %189

188:                                              ; preds = %175
  store i32 0, ptr %29, align 4
  br label %189

189:                                              ; preds = %188, %187
  call void @llvm.lifetime.end.p0(i64 4, ptr %31) #11
  call void @llvm.lifetime.end.p0(i64 4, ptr %30) #11
  %190 = load i32, ptr %29, align 4
  switch i32 %190, label %211 [
    i32 0, label %191
  ]

191:                                              ; preds = %189
  br label %192

192:                                              ; preds = %191, %149
  br label %193

193:                                              ; preds = %192, %148
  %194 = load ptr, ptr %14, align 8, !tbaa !3
  %195 = load i32, ptr %19, align 4, !tbaa !18
  %196 = load i32, ptr %25, align 4, !tbaa !18
  %197 = load i32, ptr %21, align 4, !tbaa !18
  %198 = load i32, ptr %26, align 4, !tbaa !18
  %199 = load double, ptr %23, align 8, !tbaa !77
  %200 = load i32, ptr %17, align 4, !tbaa !18
  %201 = load ptr, ptr %24, align 8, !tbaa !55
  call void @_ZNK6icu_779VTimeZone31writeZonePropsByDOW_GEQ_DOM_subERNS_9VTZWriterEiiiidiR10UErrorCode(ptr noundef nonnull align 8 dereferenceable(288) %32, ptr noundef nonnull align 8 dereferenceable(8) %194, i32 noundef %195, i32 noundef %196, i32 noundef %197, i32 noundef %198, double noundef %199, i32 noundef %200, ptr noundef nonnull align 4 dereferenceable(4) %201)
  %202 = load ptr, ptr %24, align 8, !tbaa !55
  %203 = load i32, ptr %202, align 4, !tbaa !45
  %204 = call noundef signext i8 @_ZL9U_FAILURE10UErrorCode(i32 noundef %203)
  %205 = icmp ne i8 %204, 0
  br i1 %205, label %206, label %207

206:                                              ; preds = %193
  store i32 1, ptr %29, align 4
  br label %211

207:                                              ; preds = %193
  %208 = load ptr, ptr %14, align 8, !tbaa !3
  %209 = load i8, ptr %15, align 1, !tbaa !28
  %210 = load ptr, ptr %24, align 8, !tbaa !55
  call void @_ZNK6icu_779VTimeZone12endZonePropsERNS_9VTZWriterEaR10UErrorCode(ptr noundef nonnull align 8 dereferenceable(288) %32, ptr noundef nonnull align 8 dereferenceable(8) %208, i8 noundef signext %209, ptr noundef nonnull align 4 dereferenceable(4) %210)
  store i32 0, ptr %29, align 4
  br label %211

211:                                              ; preds = %207, %206, %189, %146
  call void @llvm.lifetime.end.p0(i64 4, ptr %26) #11
  call void @llvm.lifetime.end.p0(i64 4, ptr %25) #11
  %212 = load i32, ptr %29, align 4
  switch i32 %212, label %216 [
    i32 0, label %213
    i32 1, label %215
  ]

213:                                              ; preds = %211
  br label %214

214:                                              ; preds = %213, %99
  br label %215

215:                                              ; preds = %37, %60, %98, %112, %211, %214, %61
  ret void

216:                                              ; preds = %211
  unreachable
}