; Function Attrs: mustprogress uwtable
define void @_ZNK6icu_779VTimeZone27writeZonePropsByDOW_GEQ_DOMERNS_9VTZWriterEaRKNS_13UnicodeStringEiiiiiddR10UErrorCode(ptr noundef nonnull readnone align 8 captures(none) dereferenceable(288) %0, ptr noundef nonnull readonly align 8 captures(none) dereferenceable(8) %1, i8 noundef signext %2, ptr noundef nonnull align 8 dereferenceable(64) %3, i32 noundef %4, i32 noundef %5, i32 noundef %6, i32 noundef %7, i32 noundef %8, double noundef %9, double noundef %10, ptr noundef nonnull align 4 dereferenceable(4) %11) local_unnamed_addr #2 align 2 {
  %13 = load i32, ptr %11, align 4, !tbaa !31
  %14 = icmp slt i32 %13, 1
  br i1 %14, label %15, label %62

15:                                               ; preds = %12
  %16 = srem i32 %7, 7
  %17 = icmp eq i32 %16, 1
  br i1 %17, label %18, label %21

18:                                               ; preds = %15
  %19 = add nsw i32 %7, 6
  %20 = sdiv i32 %19, 7
  tail call void @_ZNK6icu_779VTimeZone19writeZonePropsByDOWERNS_9VTZWriterEaRKNS_13UnicodeStringEiiiiiddR10UErrorCode(ptr noundef nonnull align 8 dereferenceable(288) %0, ptr noundef nonnull align 8 dereferenceable(8) %1, i8 noundef signext %2, ptr noundef nonnull align 8 dereferenceable(64) %3, i32 noundef %4, i32 noundef %5, i32 noundef %6, i32 noundef %20, i32 noundef %8, double noundef %9, double noundef %10, ptr noundef nonnull align 4 dereferenceable(4) %11)
  br label %62

21:                                               ; preds = %15
  %.not91 = icmp eq i32 %6, 1
  br i1 %.not91, label %31, label %22

22:                                               ; preds = %21
  %23 = sext i32 %6 to i64
  %24 = getelementptr inbounds [12 x i32], ptr @_ZN6icu_77L11MONTHLENGTHE, i64 0, i64 %23
  %25 = load i32, ptr %24, align 4, !tbaa !42
  %26 = sub nsw i32 %25, %7
  %27 = srem i32 %26, 7
  %28 = icmp eq i32 %27, 6
  br i1 %28, label %29, label %31

29:                                               ; preds = %22
  %30 = add nsw i32 %26, 1
  %.neg96 = sdiv i32 %30, -7
  tail call void @_ZNK6icu_779VTimeZone19writeZonePropsByDOWERNS_9VTZWriterEaRKNS_13UnicodeStringEiiiiiddR10UErrorCode(ptr noundef nonnull align 8 dereferenceable(288) %0, ptr noundef nonnull align 8 dereferenceable(8) %1, i8 noundef signext %2, ptr noundef nonnull align 8 dereferenceable(64) %3, i32 noundef %4, i32 noundef %5, i32 noundef %6, i32 noundef %.neg96, i32 noundef %8, double noundef %9, double noundef %10, ptr noundef nonnull align 4 dereferenceable(4) %11)
  br label %62

31:                                               ; preds = %22, %21
  tail call void @_ZNK6icu_779VTimeZone14beginZonePropsERNS_9VTZWriterEaRKNS_13UnicodeStringEiidR10UErrorCode(ptr nonnull align 8 poison, ptr noundef nonnull align 8 dereferenceable(8) %1, i8 noundef signext %2, ptr noundef nonnull align 8 dereferenceable(64) %3, i32 noundef %4, i32 noundef %5, double noundef %9, ptr noundef nonnull align 4 dereferenceable(4) %11)
  %32 = load i32, ptr %11, align 4, !tbaa !31
  %33 = icmp slt i32 %32, 1
  br i1 %33, label %34, label %62

34:                                               ; preds = %31
  %35 = icmp slt i32 %7, 1
  br i1 %35, label %36, label %44

36:                                               ; preds = %34
  %.neg = add nsw i32 %7, -1
  %37 = sub nsw i32 1, %7
  %38 = add nsw i32 %7, 6
  %39 = add nsw i32 %6, -1
  %40 = icmp slt i32 %6, 1
  %41 = select i1 %40, i32 11, i32 %39
  tail call void @_ZNK6icu_779VTimeZone31writeZonePropsByDOW_GEQ_DOM_subERNS_9VTZWriterEiiiidiR10UErrorCode(ptr nonnull align 8 poison, ptr noundef nonnull align 8 dereferenceable(8) %1, i32 noundef %41, i32 noundef %.neg, i32 noundef %8, i32 noundef %37, double noundef 0x43846A3EDDF8CD80, i32 noundef %4, ptr noundef nonnull align 4 dereferenceable(4) %11)
  %42 = load i32, ptr %11, align 4, !tbaa !31
  %43 = icmp slt i32 %42, 1
  br i1 %43, label %58, label %62

44:                                               ; preds = %34
  %45 = add nuw nsw i32 %7, 6
  %46 = sext i32 %6 to i64
  %47 = getelementptr inbounds [12 x i32], ptr @_ZN6icu_77L11MONTHLENGTHE, i64 0, i64 %46
  %48 = load i32, ptr %47, align 4, !tbaa !42
  %49 = icmp sgt i32 %45, %48
  br i1 %49, label %50, label %58

50:                                               ; preds = %44
  %51 = sub nsw i32 %45, %48
  %52 = sub nsw i32 7, %51
  %53 = add nsw i32 %6, 1
  %54 = icmp sgt i32 %6, 10
  %55 = select i1 %54, i32 0, i32 %53
  tail call void @_ZNK6icu_779VTimeZone31writeZonePropsByDOW_GEQ_DOM_subERNS_9VTZWriterEiiiidiR10UErrorCode(ptr nonnull align 8 poison, ptr noundef nonnull align 8 dereferenceable(8) %1, i32 noundef %55, i32 noundef 1, i32 noundef %8, i32 noundef %51, double noundef 0x43846A3EDDF8CD80, i32 noundef %4, ptr noundef nonnull align 4 dereferenceable(4) %11)
  %56 = load i32, ptr %11, align 4, !tbaa !31
  %57 = icmp slt i32 %56, 1
  br i1 %57, label %58, label %62

58:                                               ; preds = %44, %50, %36
  %.083 = phi i32 [ %38, %36 ], [ %52, %50 ], [ 7, %44 ]
  %.1 = phi i32 [ 1, %36 ], [ %7, %50 ], [ %7, %44 ]
  tail call void @_ZNK6icu_779VTimeZone31writeZonePropsByDOW_GEQ_DOM_subERNS_9VTZWriterEiiiidiR10UErrorCode(ptr nonnull align 8 poison, ptr noundef nonnull align 8 dereferenceable(8) %1, i32 noundef %6, i32 noundef %.1, i32 noundef %8, i32 noundef %.083, double noundef %10, i32 noundef %4, ptr noundef nonnull align 4 dereferenceable(4) %11)
  %59 = load i32, ptr %11, align 4, !tbaa !31
  %60 = icmp slt i32 %59, 1
  br i1 %60, label %61, label %62

61:                                               ; preds = %58
  tail call void @_ZNK6icu_779VTimeZone12endZonePropsERNS_9VTZWriterEaR10UErrorCode(ptr nonnull align 8 poison, ptr noundef nonnull align 8 dereferenceable(8) %1, i8 noundef signext %2, ptr noundef nonnull align 4 dereferenceable(4) %11)
  br label %62

62:                                               ; preds = %61, %50, %36, %58, %29, %31, %18, %12
  ret void
}